; Function Attrs: mustprogress nofree nounwind willreturn memory(write, argmem: readwrite) uwtable
define internal noundef float @"_ZNSt17_Function_handlerIFfdEZN19OpenColorIO_v2_5dev7DISPLAY7ST_208421GeneratePQToLinearOpsERNS1_10OpRcPtrVecEE3$_0E9_M_invokeERKSt9_Any_dataOd"(ptr nonnull readnone align 8 captures(none) %0, ptr noundef nonnull readonly align 8 captures(none) dereferenceable(8) %1) #11 align 2 {
  %.val = load double, ptr %1, align 8, !tbaa !12
  %3 = tail call noundef double @llvm.fabs.f64(double %.val)
  %4 = tail call double @pow(double noundef %3, double noundef 0x3F89F9B5860989B1) #23, !tbaa !14
  %5 = fadd double %4, 0xBFEAC00000000000
  %6 = fcmp ogt double %5, 0.000000e+00
  %.sroa.speculated.i.i.i = select i1 %6, double %5, double 0.000000e+00
  %7 = tail call double @llvm.fmuladd.f64(double %4, double -1.868750e+01, double 0x4032DA0000000000)
  %8 = fdiv double %.sroa.speculated.i.i.i, %7
  %9 = tail call double @pow(double noundef %8, double noundef 0x40191C0D56E7162B) #23, !tbaa !14
  %10 = fmul double %9, 1.000000e+02
  %11 = tail call double @llvm.copysign.f64(double %10, double %.val)
  %12 = fptrunc double %11 to float
  ret float %12
}